target datalayout = "e-m:e-p270:32:32-p271:32:32-p272:64:64-i64:64-i128:128-f80:128-n8:16:32:64-S128"
target triple = "x86_64-pc-linux-gnu"

; Function Attrs: nounwind uwtable
define hidden void @python_hashlib_Hacl_Hash_Blake2s_Simd128_update_last(i32 noundef %0, ptr noundef %1, ptr noundef %2, i1 noundef zeroext %3, i64 noundef %4, i32 noundef %5, ptr noundef %6) #5 {
  %8 = alloca i32, align 4
  %9 = alloca ptr, align 8
  %10 = alloca ptr, align 8
  %11 = alloca i8, align 1
  %12 = alloca i64, align 8
  %13 = alloca i32, align 4
  %14 = alloca ptr, align 8
  %15 = alloca [64 x i8], align 16
  %16 = alloca ptr, align 8
  %17 = alloca i64, align 8
  store i32 %0, ptr %8, align 4, !tbaa !7
  store ptr %1, ptr %9, align 8, !tbaa !3
  store ptr %2, ptr %10, align 8, !tbaa !3
  %18 = zext i1 %3 to i8
  store i8 %18, ptr %11, align 1, !tbaa !29
  store i64 %4, ptr %12, align 8, !tbaa !26
  store i32 %5, ptr %13, align 4, !tbaa !7
  store ptr %6, ptr %14, align 8, !tbaa !25
  call void @llvm.lifetime.start.p0(i64 64, ptr %15) #14
  call void @llvm.memset.p0.i64(ptr align 16 %15, i8 0, i64 64, i1 false)
  call void @llvm.lifetime.start.p0(i64 8, ptr %16) #14
  %19 = load ptr, ptr %14, align 8, !tbaa !25
  %20 = load i32, ptr %8, align 4, !tbaa !7
  %21 = zext i32 %20 to i64
  %22 = getelementptr i8, ptr %19, i64 %21
  %23 = load i32, ptr %13, align 4, !tbaa !7
  %24 = zext i32 %23 to i64
  %25 = sub i64 0, %24
  %26 = getelementptr i8, ptr %22, i64 %25
  store ptr %26, ptr %16, align 8, !tbaa !25
  %27 = getelementptr inbounds [64 x i8], ptr %15, i64 0, i64 0
  %28 = load ptr, ptr %16, align 8, !tbaa !25
  %29 = load i32, ptr %13, align 4, !tbaa !7
  %30 = zext i32 %29 to i64
  %31 = mul i64 %30, 1
  call void @llvm.memcpy.p0.p0.i64(ptr align 16 %27, ptr align 1 %28, i64 %31, i1 false)
  call void @llvm.lifetime.start.p0(i64 8, ptr %17) #14
  %32 = load i64, ptr %12, align 8, !tbaa !26
  %33 = load i32, ptr %8, align 4, !tbaa !7
  %34 = zext i32 %33 to i64
  %35 = add i64 %32, %34
  store i64 %35, ptr %17, align 8, !tbaa !26
  %36 = load ptr, ptr %9, align 8, !tbaa !3
  %37 = load ptr, ptr %10, align 8, !tbaa !3
  %38 = load i8, ptr %11, align 1, !tbaa !29, !range !31, !noundef !32
  %39 = trunc i8 %38 to i1
  %40 = load i64, ptr %17, align 8, !tbaa !26
  %41 = getelementptr inbounds [64 x i8], ptr %15, i64 0, i64 0
  call void @update_block(ptr noundef %36, ptr noundef %37, i1 noundef zeroext true, i1 noundef zeroext %39, i64 noundef %40, ptr noundef %41)
  %42 = getelementptr inbounds [64 x i8], ptr %15, i64 0, i64 0
  call void @Lib_Memzero0_memzero0(ptr noundef %42, i64 noundef 64)
  call void @llvm.lifetime.end.p0(i64 8, ptr %17) #14
  call void @llvm.lifetime.end.p0(i64 8, ptr %16) #14
  call void @llvm.lifetime.end.p0(i64 64, ptr %15) #14
  ret void
}