; Function Attrs: nounwind uwtable
define hidden void @python_hashlib_Hacl_Hash_Blake2s_Simd128_update_last(i32 noundef %0, ptr noundef captures(none) initializes((0, 64)) %1, ptr noundef captures(none) %2, i1 noundef zeroext %3, i64 noundef %4, i32 noundef %5, ptr noundef readonly captures(none) %6) local_unnamed_addr #5 {
  %8 = alloca [64 x i8], align 16
  call void @llvm.lifetime.start.p0(i64 64, ptr nonnull %8) #25
  call void @llvm.memset.p0.i64(ptr noundef nonnull align 16 dereferenceable(64) %8, i8 0, i64 64, i1 false)
  %9 = zext i32 %0 to i64
  %10 = getelementptr i8, ptr %6, i64 %9
  %11 = zext i32 %5 to i64
  %12 = sub nsw i64 0, %11
  %13 = getelementptr i8, ptr %10, i64 %12
  call void @llvm.memcpy.p0.p0.i64(ptr nonnull align 16 %8, ptr align 1 %13, i64 %11, i1 false)
  %14 = add i64 %4, %9
  call fastcc void @update_block(ptr noundef %1, ptr noundef %2, i1 noundef zeroext true, i1 noundef zeroext %3, i64 noundef %14, ptr noundef nonnull %8)
  call void @Lib_Memzero0_memzero0(ptr noundef nonnull %8, i64 noundef 64) #25
  call void @llvm.lifetime.end.p0(i64 64, ptr nonnull %8) #25
  ret void
}